target datalayout = "e-m:e-p270:32:32-p271:32:32-p272:64:64-i64:64-i128:128-f80:128-n8:16:32:64-S128"
target triple = "x86_64-unknown-linux-gnu"

%"struct.pugi::impl::(anonymous namespace)::gap" = type { ptr, i64 }

; Function Attrs: mustprogress nounwind uwtable
define internal noundef ptr @_ZN4pugi4impl12_GLOBAL__N_13gap5flushEPc(ptr noundef nonnull align 8 dereferenceable(16) %this, ptr noundef %s) #0 align 2 {
entry:
  %retval = alloca ptr, align 8
  %this.addr = alloca ptr, align 8
  %s.addr = alloca ptr, align 8
  store ptr %this, ptr %this.addr, align 8
  store ptr %s, ptr %s.addr, align 8
  %this1 = load ptr, ptr %this.addr, align 8
  %end = getelementptr inbounds %"struct.pugi::impl::(anonymous namespace)::gap", ptr %this1, i32 0, i32 0
  %0 = load ptr, ptr %end, align 8
  %tobool = icmp ne ptr %0, null
  br i1 %tobool, label %if.then, label %if.else

if.then:                                          ; preds = %entry
  %end2 = getelementptr inbounds %"struct.pugi::impl::(anonymous namespace)::gap", ptr %this1, i32 0, i32 0
  %1 = load ptr, ptr %end2, align 8
  %size = getelementptr inbounds %"struct.pugi::impl::(anonymous namespace)::gap", ptr %this1, i32 0, i32 1
  %2 = load i64, ptr %size, align 8
  %idx.neg = sub i64 0, %2
  %add.ptr = getelementptr inbounds i8, ptr %1, i64 %idx.neg
  %end3 = getelementptr inbounds %"struct.pugi::impl::(anonymous namespace)::gap", ptr %this1, i32 0, i32 0
  %3 = load ptr, ptr %end3, align 8
  %4 = load ptr, ptr %s.addr, align 8
  %end4 = getelementptr inbounds %"struct.pugi::impl::(anonymous namespace)::gap", ptr %this1, i32 0, i32 0
  %5 = load ptr, ptr %end4, align 8
  %sub.ptr.lhs.cast = ptrtoint ptr %4 to i64
  %sub.ptr.rhs.cast = ptrtoint ptr %5 to i64
  %sub.ptr.sub = sub i64 %sub.ptr.lhs.cast, %sub.ptr.rhs.cast
  %mul = mul i64 %sub.ptr.sub, 1
  call void @llvm.memmove.p0.p0.i64(ptr align 1 %add.ptr, ptr align 1 %3, i64 %mul, i1 false)
  %6 = load ptr, ptr %s.addr, align 8
  %size5 = getelementptr inbounds %"struct.pugi::impl::(anonymous namespace)::gap", ptr %this1, i32 0, i32 1
  %7 = load i64, ptr %size5, align 8
  %idx.neg6 = sub i64 0, %7
  %add.ptr7 = getelementptr inbounds i8, ptr %6, i64 %idx.neg6
  store ptr %add.ptr7, ptr %retval, align 8
  br label %return

if.else:                                          ; preds = %entry
  %8 = load ptr, ptr %s.addr, align 8
  store ptr %8, ptr %retval, align 8
  br label %return

return:                                           ; preds = %if.else, %if.then
  %9 = load ptr, ptr %retval, align 8
  ret ptr %9
}

; Function Attrs: mustprogress nounwind uwtable
define internal void @_ZN4pugi4impl12_GLOBAL__N_13gapC2Ev(ptr noundef nonnull align 8 dereferenceable(16) %this) unnamed_addr #0 align 2 {
entry:
  %this.addr = alloca ptr, align 8
  store ptr %this, ptr %this.addr, align 8
  %this1 = load ptr, ptr %this.addr, align 8
  %end = getelementptr inbounds %"struct.pugi::impl::(anonymous namespace)::gap", ptr %this1, i32 0, i32 0
  store ptr null, ptr %end, align 8
  %size = getelementptr inbounds %"struct.pugi::impl::(anonymous namespace)::gap", ptr %this1, i32 0, i32 1
  store i64 0, ptr %size, align 8
  ret void
}

; Function Attrs: mustprogress uwtable
define internal noundef ptr @_ZN4pugi4impl12_GLOBAL__N_122strconv_attribute_implINS1_9opt_falseEE12parse_simpleEPcc(ptr noundef %s, i8 noundef signext %end_quote) #2 align 2 {
entry:
  %retval = alloca ptr, align 8
  %s.addr = alloca ptr, align 8
  %end_quote.addr = alloca i8, align 1
  %g = alloca %"struct.pugi::impl::(anonymous namespace)::gap", align 8
  %ss = alloca i8, align 1
  store ptr %s, ptr %s.addr, align 8
  store i8 %end_quote, ptr %end_quote.addr, align 1
  call void @_ZN4pugi4impl12_GLOBAL__N_13gapC2Ev(ptr noundef nonnull align 8 dereferenceable(16) %g)
  br label %while.body

while.body:                                       ; preds = %if.end48, %entry
  br label %for.cond

for.cond:                                         ; preds = %if.end38, %while.body
  %0 = load ptr, ptr %s.addr, align 8
  %arrayidx = getelementptr inbounds i8, ptr %0, i64 0
  %1 = load i8, ptr %arrayidx, align 1
  store i8 %1, ptr %ss, align 1
  %2 = load i8, ptr %ss, align 1
  %idxprom = zext i8 %2 to i64
  %arrayidx1 = getelementptr inbounds [256 x i8], ptr @_ZN4pugi4impl12_GLOBAL__N_114chartype_tableE, i64 0, i64 %idxprom
  %3 = load i8, ptr %arrayidx1, align 1
  %conv = zext i8 %3 to i32
  %and = and i32 %conv, 2
  %tobool = icmp ne i32 %and, 0
  %lnot = xor i1 %tobool, true
  %lnot2 = xor i1 %lnot, true
  br i1 %lnot2, label %if.then, label %if.end

if.then:                                          ; preds = %for.cond
  br label %for.end

if.end:                                           ; preds = %for.cond
  %4 = load ptr, ptr %s.addr, align 8
  %arrayidx4 = getelementptr inbounds i8, ptr %4, i64 1
  %5 = load i8, ptr %arrayidx4, align 1
  store i8 %5, ptr %ss, align 1
  %6 = load i8, ptr %ss, align 1
  %idxprom5 = zext i8 %6 to i64
  %arrayidx6 = getelementptr inbounds [256 x i8], ptr @_ZN4pugi4impl12_GLOBAL__N_114chartype_tableE, i64 0, i64 %idxprom5
  %7 = load i8, ptr %arrayidx6, align 1
  %conv7 = zext i8 %7 to i32
  %and8 = and i32 %conv7, 2
  %tobool9 = icmp ne i32 %and8, 0
  %lnot10 = xor i1 %tobool9, true
  %lnot11 = xor i1 %lnot10, true
  br i1 %lnot11, label %if.then13, label %if.end14

if.then13:                                        ; preds = %if.end
  %8 = load ptr, ptr %s.addr, align 8
  %add.ptr = getelementptr inbounds i8, ptr %8, i64 1
  store ptr %add.ptr, ptr %s.addr, align 8
  br label %for.end

if.end14:                                         ; preds = %if.end
  %9 = load ptr, ptr %s.addr, align 8
  %arrayidx15 = getelementptr inbounds i8, ptr %9, i64 2
  %10 = load i8, ptr %arrayidx15, align 1
  store i8 %10, ptr %ss, align 1
  %11 = load i8, ptr %ss, align 1
  %idxprom16 = zext i8 %11 to i64
  %arrayidx17 = getelementptr inbounds [256 x i8], ptr @_ZN4pugi4impl12_GLOBAL__N_114chartype_tableE, i64 0, i64 %idxprom16
  %12 = load i8, ptr %arrayidx17, align 1
  %conv18 = zext i8 %12 to i32
  %and19 = and i32 %conv18, 2
  %tobool20 = icmp ne i32 %and19, 0
  %lnot21 = xor i1 %tobool20, true
  %lnot22 = xor i1 %lnot21, true
  br i1 %lnot22, label %if.then24, label %if.end26

if.then24:                                        ; preds = %if.end14
  %13 = load ptr, ptr %s.addr, align 8
  %add.ptr25 = getelementptr inbounds i8, ptr %13, i64 2
  store ptr %add.ptr25, ptr %s.addr, align 8
  br label %for.end

if.end26:                                         ; preds = %if.end14
  %14 = load ptr, ptr %s.addr, align 8
  %arrayidx27 = getelementptr inbounds i8, ptr %14, i64 3
  %15 = load i8, ptr %arrayidx27, align 1
  store i8 %15, ptr %ss, align 1
  %16 = load i8, ptr %ss, align 1
  %idxprom28 = zext i8 %16 to i64
  %arrayidx29 = getelementptr inbounds [256 x i8], ptr @_ZN4pugi4impl12_GLOBAL__N_114chartype_tableE, i64 0, i64 %idxprom28
  %17 = load i8, ptr %arrayidx29, align 1
  %conv30 = zext i8 %17 to i32
  %and31 = and i32 %conv30, 2
  %tobool32 = icmp ne i32 %and31, 0
  %lnot33 = xor i1 %tobool32, true
  %lnot34 = xor i1 %lnot33, true
  br i1 %lnot34, label %if.then36, label %if.end38

if.then36:                                        ; preds = %if.end26
  %18 = load ptr, ptr %s.addr, align 8
  %add.ptr37 = getelementptr inbounds i8, ptr %18, i64 3
  store ptr %add.ptr37, ptr %s.addr, align 8
  br label %for.end

if.end38:                                         ; preds = %if.end26
  %19 = load ptr, ptr %s.addr, align 8
  %add.ptr39 = getelementptr inbounds i8, ptr %19, i64 4
  store ptr %add.ptr39, ptr %s.addr, align 8
  br label %for.cond, !llvm.loop !106

for.end:                                          ; preds = %if.then36, %if.then24, %if.then13, %if.then
  %20 = load ptr, ptr %s.addr, align 8
  %21 = load i8, ptr %20, align 1
  %conv40 = sext i8 %21 to i32
  %22 = load i8, ptr %end_quote.addr, align 1
  %conv41 = sext i8 %22 to i32
  %cmp = icmp eq i32 %conv40, %conv41
  br i1 %cmp, label %if.then42, label %if.else

if.then42:                                        ; preds = %for.end
  %23 = load ptr, ptr %s.addr, align 8
  %call = call noundef ptr @_ZN4pugi4impl12_GLOBAL__N_13gap5flushEPc(ptr noundef nonnull align 8 dereferenceable(16) %g, ptr noundef %23)
  store i8 0, ptr %call, align 1
  %24 = load ptr, ptr %s.addr, align 8
  %add.ptr43 = getelementptr inbounds i8, ptr %24, i64 1
  store ptr %add.ptr43, ptr %retval, align 8
  br label %return

if.else:                                          ; preds = %for.end
  %25 = load ptr, ptr %s.addr, align 8
  %26 = load i8, ptr %25, align 1
  %tobool44 = icmp ne i8 %26, 0
  br i1 %tobool44, label %if.else46, label %if.then45

if.then45:                                        ; preds = %if.else
  store ptr null, ptr %retval, align 8
  br label %return

if.else46:                                        ; preds = %if.else
  %27 = load ptr, ptr %s.addr, align 8
  %incdec.ptr = getelementptr inbounds i8, ptr %27, i32 1
  store ptr %incdec.ptr, ptr %s.addr, align 8
  br label %if.end47

if.end47:                                         ; preds = %if.else46
  br label %if.end48

if.end48:                                         ; preds = %if.end47
  br label %while.body, !llvm.loop !107

return:                                           ; preds = %if.then45, %if.then42
  %28 = load ptr, ptr %retval, align 8
  ret ptr %28
}