; Function Attrs: mustprogress nofree norecurse nosync nounwind memory(readwrite, inaccessiblemem: none) uwtable
define internal noundef ptr @_ZN4pugi4impl12_GLOBAL__N_122strconv_attribute_implINS1_9opt_falseEE12parse_simpleEPcc(ptr noundef %s, i8 noundef signext %end_quote) unnamed_addr #17 align 2 {
entry:
  br label %while.body

while.body:                                       ; preds = %if.else46, %entry
  %s.addr.0 = phi ptr [ %s, %entry ], [ %incdec.ptr, %if.else46 ]
  %0 = load i8, ptr %s.addr.0, align 1
  %idxprom26 = zext i8 %0 to i64
  %arrayidx127 = getelementptr inbounds [256 x i8], ptr @_ZN4pugi4impl12_GLOBAL__N_114chartype_tableE, i64 0, i64 %idxprom26
  %1 = load i8, ptr %arrayidx127, align 1
  %2 = and i8 %1, 2
  %tobool.not28 = icmp eq i8 %2, 0
  br i1 %tobool.not28, label %if.end, label %for.end

if.end:                                           ; preds = %while.body, %if.end38
  %s.addr.129 = phi ptr [ %add.ptr39, %if.end38 ], [ %s.addr.0, %while.body ]
  %arrayidx4 = getelementptr inbounds i8, ptr %s.addr.129, i64 1
  %3 = load i8, ptr %arrayidx4, align 1
  %idxprom5 = zext i8 %3 to i64
  %arrayidx6 = getelementptr inbounds [256 x i8], ptr @_ZN4pugi4impl12_GLOBAL__N_114chartype_tableE, i64 0, i64 %idxprom5
  %4 = load i8, ptr %arrayidx6, align 1
  %5 = and i8 %4, 2
  %tobool9.not = icmp eq i8 %5, 0
  br i1 %tobool9.not, label %if.end14, label %for.end.loopexit.split.loop.exit38

if.end14:                                         ; preds = %if.end
  %arrayidx15 = getelementptr inbounds i8, ptr %s.addr.129, i64 2
  %6 = load i8, ptr %arrayidx15, align 1
  %idxprom16 = zext i8 %6 to i64
  %arrayidx17 = getelementptr inbounds [256 x i8], ptr @_ZN4pugi4impl12_GLOBAL__N_114chartype_tableE, i64 0, i64 %idxprom16
  %7 = load i8, ptr %arrayidx17, align 1
  %8 = and i8 %7, 2
  %tobool20.not = icmp eq i8 %8, 0
  br i1 %tobool20.not, label %if.end26, label %for.end.loopexit.split.loop.exit35

if.end26:                                         ; preds = %if.end14
  %arrayidx27 = getelementptr inbounds i8, ptr %s.addr.129, i64 3
  %9 = load i8, ptr %arrayidx27, align 1
  %idxprom28 = zext i8 %9 to i64
  %arrayidx29 = getelementptr inbounds [256 x i8], ptr @_ZN4pugi4impl12_GLOBAL__N_114chartype_tableE, i64 0, i64 %idxprom28
  %10 = load i8, ptr %arrayidx29, align 1
  %11 = and i8 %10, 2
  %tobool32.not = icmp eq i8 %11, 0
  br i1 %tobool32.not, label %if.end38, label %for.end.loopexit.split.loop.exit

if.end38:                                         ; preds = %if.end26
  %add.ptr39 = getelementptr inbounds i8, ptr %s.addr.129, i64 4
  %12 = load i8, ptr %add.ptr39, align 1
  %idxprom = zext i8 %12 to i64
  %arrayidx1 = getelementptr inbounds [256 x i8], ptr @_ZN4pugi4impl12_GLOBAL__N_114chartype_tableE, i64 0, i64 %idxprom
  %13 = load i8, ptr %arrayidx1, align 1
  %14 = and i8 %13, 2
  %tobool.not = icmp eq i8 %14, 0
  br i1 %tobool.not, label %if.end, label %for.end, !llvm.loop !263

for.end.loopexit.split.loop.exit:                 ; preds = %if.end26
  %arrayidx27.le = getelementptr inbounds i8, ptr %s.addr.129, i64 3
  br label %for.end

for.end.loopexit.split.loop.exit35:               ; preds = %if.end14
  %arrayidx15.le = getelementptr inbounds i8, ptr %s.addr.129, i64 2
  br label %for.end

for.end.loopexit.split.loop.exit38:               ; preds = %if.end
  %arrayidx4.le = getelementptr inbounds i8, ptr %s.addr.129, i64 1
  br label %for.end

for.end:                                          ; preds = %if.end38, %for.end.loopexit.split.loop.exit, %for.end.loopexit.split.loop.exit35, %for.end.loopexit.split.loop.exit38, %while.body
  %15 = phi i8 [ %0, %while.body ], [ %9, %for.end.loopexit.split.loop.exit ], [ %6, %for.end.loopexit.split.loop.exit35 ], [ %3, %for.end.loopexit.split.loop.exit38 ], [ %12, %if.end38 ]
  %s.addr.2 = phi ptr [ %s.addr.0, %while.body ], [ %arrayidx27.le, %for.end.loopexit.split.loop.exit ], [ %arrayidx15.le, %for.end.loopexit.split.loop.exit35 ], [ %arrayidx4.le, %for.end.loopexit.split.loop.exit38 ], [ %add.ptr39, %if.end38 ]
  %cmp = icmp eq i8 %15, %end_quote
  br i1 %cmp, label %_ZN4pugi4impl12_GLOBAL__N_13gap5flushEPc.exit, label %if.else

_ZN4pugi4impl12_GLOBAL__N_13gap5flushEPc.exit:    ; preds = %for.end
  store i8 0, ptr %s.addr.2, align 1
  %add.ptr43 = getelementptr inbounds i8, ptr %s.addr.2, i64 1
  br label %return

if.else:                                          ; preds = %for.end
  %tobool44.not = icmp eq i8 %15, 0
  br i1 %tobool44.not, label %return, label %if.else46

if.else46:                                        ; preds = %if.else
  %incdec.ptr = getelementptr inbounds i8, ptr %s.addr.2, i64 1
  br label %while.body, !llvm.loop !264

return:                                           ; preds = %if.else, %_ZN4pugi4impl12_GLOBAL__N_13gap5flushEPc.exit
  %retval.0 = phi ptr [ %add.ptr43, %_ZN4pugi4impl12_GLOBAL__N_13gap5flushEPc.exit ], [ null, %if.else ]
  ret ptr %retval.0
}